S'Shreya Mishra | Smriti Chawla\n\nCenter for Computational Biology\nIndraprastha Institute of Information Technology Delhi\nOkhla Phase III\nNear Govindpuri Metro Station\nNew Delhi, India 110020\n\nEMail:\tshreyam@iiitd.ac.in\n\tsmritic@iiitd.ac.in\n'
p0
.
